target datalayout = "e-m:e-p270:32:32-p271:32:32-p272:64:64-i64:64-i128:128-f80:128-n8:16:32:64-S128"
target triple = "x86_64-pc-linux-gnu"

%struct.ImVec2 = type { float, float }
%struct.ImRect = type { %struct.ImVec2, %struct.ImVec2 }
%struct.ImGuiWindow = type <{ ptr, ptr, i32, i32, i32, [4 x i8], ptr, %struct.ImVec2, %struct.ImVec2, %struct.ImVec2, %struct.ImVec2, %struct.ImVec2, %struct.ImVec2, %struct.ImVec2, float, float, float, float, float, float, float, float, float, float, i32, i32, i32, i32, %struct.ImVec2, %struct.ImVec2, %struct.ImVec2, %struct.ImVec2, %struct.ImVec2, %struct.ImVec2, i8, i8, i8, i8, i8, i8, i8, i8, i8, i8, i8, i8, i8, i8, i8, i8, i16, i16, i16, i16, i16, i8, i8, i8, [3 x i8], i32, i8, i8, i8, i8, i32, %struct.ImVec2, %struct.ImVec2, [4 x i8], %struct.ImVector, %struct.ImGuiWindowTempData, %struct.ImRect, %struct.ImRect, %struct.ImRect, %struct.ImRect, %struct.ImRect, %struct.ImRect, %struct.ImRect, %struct.ImVec2ih, %struct.ImVec2ih, i32, float, float, [4 x i8], %struct.ImGuiStorage, %struct.ImVector.3, float, i32, ptr, %struct.ImDrawList, ptr, ptr, ptr, ptr, ptr, ptr, ptr, ptr, [2 x i32], [2 x %struct.ImRect], [2 x %struct.ImVec2], i32, i32, i32, i8, [3 x i8] }>
%struct.ImVector = type { i32, i32, ptr }
%struct.ImGuiWindowTempData = type { %struct.ImVec2, %struct.ImVec2, %struct.ImVec2, %struct.ImVec2, %struct.ImVec2, %struct.ImVec2, %struct.ImVec2, float, float, i8, i8, %struct.ImVec1, %struct.ImVec1, %struct.ImVec1, %struct.ImVec2, i32, i16, i16, i8, i8, i8, i8, %struct.ImVec2, %struct.ImGuiMenuColumns, i32, i32, %struct.ImVector.0, ptr, ptr, i32, i32, i32, i32, float, float, %struct.ImVector.1, %struct.ImVector.1 }
%struct.ImVec1 = type { float }
%struct.ImGuiMenuColumns = type <{ i32, i32, i16, i16, i16, i16, i16, [4 x i16], [2 x i8] }>
%struct.ImVector.0 = type { i32, i32, ptr }
%struct.ImVector.1 = type { i32, i32, ptr }
%struct.ImVec2ih = type { i16, i16 }
%struct.ImGuiStorage = type { %struct.ImVector.2 }
%struct.ImVector.2 = type { i32, i32, ptr }
%struct.ImVector.3 = type { i32, i32, ptr }
%struct.ImDrawList = type { %struct.ImVector.4, %struct.ImVector.5, %struct.ImVector.6, i32, i32, ptr, ptr, ptr, %struct.ImVector.7, %struct.ImDrawCmdHeader, %struct.ImDrawListSplitter, %struct.ImVector.9, %struct.ImVector.10, float, ptr }
%struct.ImVector.4 = type { i32, i32, ptr }
%struct.ImVector.5 = type { i32, i32, ptr }
%struct.ImVector.6 = type { i32, i32, ptr }
%struct.ImVector.7 = type { i32, i32, ptr }
%struct.ImDrawCmdHeader = type <{ %struct.ImVec4, ptr, i32, [4 x i8] }>
%struct.ImVec4 = type { float, float, float, float }
%struct.ImDrawListSplitter = type { i32, i32, %struct.ImVector.8 }
%struct.ImVector.8 = type { i32, i32, ptr }
%struct.ImVector.9 = type { i32, i32, ptr }
%struct.ImVector.10 = type { i32, i32, ptr }
%struct.ImGuiContext = type { i8, i8, %struct.ImGuiIO, %struct.ImGuiPlatformIO, %struct.ImGuiStyle, ptr, float, float, float, float, %struct.ImDrawListSharedData, double, i32, i32, i32, i8, i8, i8, i8, i8, ptr, [16 x i8], %struct.ImVector.11, %struct.ImVector.11, i32, i32, %struct.ImVector.0, %struct.ImVector.0, %struct.ImVector.0, %struct.ImVector.12, %struct.ImGuiStorage, i32, %struct.ImVec2, i32, ptr, ptr, ptr, ptr, ptr, ptr, %struct.ImVec2, i32, i32, float, %struct.ImVec2, %struct.ImVec2, i32, i32, i32, i32, i32, float, float, i8, i8, i8, i32, i32, float, i8, i8, i8, i8, i8, i8, i8, i8, %struct.ImVec2, ptr, i32, i32, i8, i8, ptr, i32, float, double, double, double, %struct.ImBitArray, [154 x %struct.ImGuiKeyOwnerData], %struct.ImGuiKeyRoutingTable, i32, i8, i32, i32, i32, i32, %struct.ImGuiNextItemData, %struct.ImGuiLastItemData, %struct.ImGuiNextWindowData, i8, i32, %struct.ImVector.14, %struct.ImVector.15, %struct.ImVector.16, %struct.ImVector.17, %struct.ImVector.18, %struct.ImVector.19, %struct.ImVector.20, %struct.ImVector.20, %struct.ImVector.21, %struct.ImVector.22, ptr, i32, i32, i32, i32, i32, i32, i32, %struct.ImVector.17, i32, float, i32, i32, i32, i64, i8, i8, i8, i8, i8, i8, i8, %struct.ImGuiNavItemData, i8, i8, i8, i32, i32, i32, i32, i32, i32, %struct.ImRect, %struct.ImRect, i32, i32, i32, %struct.ImGuiNavItemData, %struct.ImGuiNavItemData, %struct.ImGuiNavItemData, %struct.ImGuiNavItemData, i32, i32, i32, i32, i8, i8, i32, i32, ptr, ptr, ptr, float, float, i8, i32, %struct.ImVec2, %struct.ImVec2, float, i8, i8, i8, i32, i32, i32, [4 x i8], %struct.ImGuiPayload, %struct.ImRect, %struct.ImRect, i32, i32, float, i32, i32, i32, i32, %struct.ImVector.23, [16 x i8], i32, %struct.ImVector.24, ptr, i32, i32, %struct.ImVector.25, %struct.ImPool, %struct.ImVector.1, %struct.ImVector.8, ptr, %struct.ImPool.27, %struct.ImVector.29, %struct.ImVector.30, %struct.ImGuiBoxSelectState, ptr, i32, %struct.ImVector.31, %struct.ImPool.32, i32, i32, float, float, i32, i32, i32, float, %struct.ImVec2, %struct.ImGuiInputTextState, %struct.ImGuiInputTextDeactivatedState, %struct.ImFont, i32, %struct.ImGuiDataTypeStorage, i32, i32, i32, i32, i32, float, float, i32, %struct.ImVec4, %struct.ImGuiComboPreviewData, %struct.ImRect, i8, i16, float, float, float, i8, i8, float, float, float, i16, i16, i16, ptr, %struct.ImVector.34, %struct.ImVector, %struct.ImGuiTypingSelectState, %struct.ImGuiPlatformImeData, %struct.ImGuiPlatformImeData, i8, float, %struct.ImGuiTextBuffer, %struct.ImVector.36, %struct.ImChunkStream, %struct.ImChunkStream.37, %struct.ImVector.38, i32, [10 x ptr], i8, i32, ptr, %struct.ImGuiTextBuffer, ptr, ptr, float, i8, i32, i32, i32, ptr, ptr, %struct.ImVec2, i8, i32, %struct.ImGuiErrorRecoveryState, ptr, i32, i32, %struct.ImGuiTextBuffer, %struct.ImGuiTextIndex, i32, i32, i8, i8, i8, i32, i8, i8, i8, i32, float, %struct.ImVec4, %struct.ImGuiMetricsConfig, %struct.ImGuiIDStackTool, %struct.ImGuiDebugAllocInfo, [60 x float], i32, i32, float, i32, i32, i32, %struct.ImVector.34, [64 x i8] }
%struct.ImGuiIO = type { i32, i32, %struct.ImVec2, float, float, ptr, ptr, ptr, ptr, float, i8, ptr, %struct.ImVec2, i8, i8, i8, i8, i8, i8, i8, i8, i8, i8, float, float, float, float, float, float, i8, i8, i8, i8, i8, i8, i8, i8, i8, i8, ptr, ptr, ptr, ptr, ptr, i8, i8, i8, i8, i8, i8, i8, float, i32, i32, i32, i32, %struct.ImVec2, ptr, %struct.ImVec2, [5 x i8], float, float, i32, i8, i8, i8, i8, i32, [154 x %struct.ImGuiKeyData], i8, %struct.ImVec2, [5 x %struct.ImVec2], [5 x double], [5 x i8], [5 x i8], [5 x i16], [5 x i16], [5 x i8], [5 x i8], [5 x i8], i8, i8, [5 x float], [5 x float], [5 x float], float, i8, i8, i8, i8, i16, %struct.ImVector.5 }
%struct.ImGuiKeyData = type { i8, float, float, float }
%struct.ImGuiPlatformIO = type <{ ptr, ptr, ptr, ptr, ptr, ptr, ptr, i16, [6 x i8] }>
%struct.ImGuiStyle = type { float, float, %struct.ImVec2, float, float, %struct.ImVec2, %struct.ImVec2, i32, float, float, float, float, %struct.ImVec2, float, float, %struct.ImVec2, %struct.ImVec2, %struct.ImVec2, %struct.ImVec2, float, float, float, float, float, float, float, float, float, float, float, float, float, %struct.ImVec2, i32, %struct.ImVec2, %struct.ImVec2, float, %struct.ImVec2, %struct.ImVec2, %struct.ImVec2, %struct.ImVec2, float, i8, i8, i8, float, float, [56 x %struct.ImVec4], float, float, float, i32, i32 }
%struct.ImDrawListSharedData = type { %struct.ImVec2, ptr, float, float, float, float, %struct.ImVec4, i32, %struct.ImVector.7, [48 x %struct.ImVec2], float, [64 x i8], ptr }
%struct.ImVector.11 = type { i32, i32, ptr }
%struct.ImVector.12 = type { i32, i32, ptr }
%struct.ImBitArray = type { [5 x i32] }
%struct.ImGuiKeyOwnerData = type <{ i32, i32, i8, i8, [2 x i8] }>
%struct.ImGuiKeyRoutingTable = type { [154 x i16], %struct.ImVector.13, %struct.ImVector.13 }
%struct.ImVector.13 = type { i32, i32, ptr }
%struct.ImGuiNextItemData = type <{ i32, i32, i32, [4 x i8], i64, float, i32, i32, i8, i8, %struct.ImGuiDataTypeStorage, [2 x i8], i32, [4 x i8] }>
%struct.ImGuiLastItemData = type { i32, i32, i32, %struct.ImRect, %struct.ImRect, %struct.ImRect, %struct.ImRect, i32 }
%struct.ImGuiNextWindowData = type { i32, i32, i32, i32, %struct.ImVec2, %struct.ImVec2, %struct.ImVec2, %struct.ImVec2, %struct.ImVec2, i32, i8, %struct.ImRect, ptr, ptr, float, %struct.ImVec2, i32 }
%struct.ImVector.14 = type { i32, i32, ptr }
%struct.ImVector.15 = type { i32, i32, ptr }
%struct.ImVector.16 = type { i32, i32, ptr }
%struct.ImVector.18 = type { i32, i32, ptr }
%struct.ImVector.19 = type { i32, i32, ptr }
%struct.ImVector.20 = type { i32, i32, ptr }
%struct.ImVector.21 = type { i32, i32, ptr }
%struct.ImVector.22 = type { i32, i32, ptr }
%struct.ImVector.17 = type { i32, i32, ptr }
%struct.ImGuiNavItemData = type { ptr, i32, i32, %struct.ImRect, i32, float, float, float, i64 }
%struct.ImGuiPayload = type <{ ptr, i32, i32, i32, i32, [33 x i8], i8, i8, [5 x i8] }>
%struct.ImVector.23 = type { i32, i32, ptr }
%struct.ImVector.24 = type { i32, i32, ptr }
%struct.ImVector.25 = type { i32, i32, ptr }
%struct.ImPool = type { %struct.ImVector.26, %struct.ImGuiStorage, i32, i32 }
%struct.ImVector.26 = type { i32, i32, ptr }
%struct.ImPool.27 = type { %struct.ImVector.28, %struct.ImGuiStorage, i32, i32 }
%struct.ImVector.28 = type { i32, i32, ptr }
%struct.ImVector.29 = type { i32, i32, ptr }
%struct.ImVector.30 = type { i32, i32, ptr }
%struct.ImGuiBoxSelectState = type <{ i32, i8, i8, i8, i8, i8, i16, i8, %struct.ImVec2, %struct.ImVec2, %struct.ImVec2, [4 x i8], ptr, i8, [3 x i8], %struct.ImRect, %struct.ImRect, %struct.ImRect, [4 x i8] }>
%struct.ImVector.31 = type { i32, i32, ptr }
%struct.ImPool.32 = type { %struct.ImVector.33, %struct.ImGuiStorage, i32, i32 }
%struct.ImVector.33 = type { i32, i32, ptr }
%struct.ImGuiInputTextState = type <{ ptr, ptr, i32, i32, %struct.ImVector.34, %struct.ImVector.34, %struct.ImVector.34, i32, %struct.ImVec2, float, i8, i8, i8, i8, i32, i8, [3 x i8], i32, i32, [4 x i8] }>
%struct.ImGuiInputTextDeactivatedState = type { i32, %struct.ImVector.34 }
%struct.ImFont = type <{ %struct.ImVector.1, float, float, %struct.ImVector.5, %struct.ImVector.35, ptr, ptr, ptr, i16, i16, i16, i16, float, float, i8, [3 x i8], float, float, float, i32, [2 x i8], [2 x i8] }>
%struct.ImVector.35 = type { i32, i32, ptr }
%struct.ImGuiDataTypeStorage = type { [8 x i8] }
%struct.ImGuiComboPreviewData = type { %struct.ImRect, %struct.ImVec2, %struct.ImVec2, %struct.ImVec2, float, i32 }
%struct.ImGuiTypingSelectState = type <{ %struct.ImGuiTypingSelectRequest, [64 x i8], i32, i32, float, i8, [3 x i8] }>
%struct.ImGuiTypingSelectRequest = type { i32, i32, ptr, i8, i8, i8 }
%struct.ImGuiPlatformImeData = type { i8, %struct.ImVec2, float }
%struct.ImVector.36 = type { i32, i32, ptr }
%struct.ImChunkStream = type { %struct.ImVector.34 }
%struct.ImChunkStream.37 = type { %struct.ImVector.34 }
%struct.ImVector.38 = type { i32, i32, ptr }
%struct.ImGuiErrorRecoveryState = type { i16, i16, i16, i16, i16, i16, i16, i16, i16, i16, i16 }
%struct.ImGuiTextBuffer = type { %struct.ImVector.34 }
%struct.ImGuiTextIndex = type <{ %struct.ImVector.18, i32, [4 x i8] }>
%struct.ImGuiMetricsConfig = type { i8, i8, i8, i8, i8, i8, i8, i8, i8, i32, i32, i32, i32 }
%struct.ImGuiIDStackTool = type { i32, i32, i32, %struct.ImVector.39, i8, float }
%struct.ImVector.39 = type { i32, i32, ptr }
%struct.ImGuiDebugAllocInfo = type { i32, i32, i16, [6 x %struct.ImGuiDebugAllocEntry] }
%struct.ImGuiDebugAllocEntry = type { i32, i16, i16 }
%struct.ImVector.34 = type { i32, i32, ptr }

@GImGui = external global ptr, align 8

; Function Attrs: inlinehint mustprogress nounwind uwtable
define internal noundef float @_ZL5ImMaxIfET_S0_S0_(float noundef %0, float noundef %1) #2 {
  %3 = alloca float, align 4
  %4 = alloca float, align 4
  store float %0, ptr %3, align 4, !tbaa !66
  store float %1, ptr %4, align 4, !tbaa !66
  %5 = load float, ptr %3, align 4, !tbaa !66
  %6 = load float, ptr %4, align 4, !tbaa !66
  %7 = fcmp oge float %5, %6
  br i1 %7, label %8, label %10

8:                                                ; preds = %2
  %9 = load float, ptr %3, align 4, !tbaa !66
  br label %12

10:                                               ; preds = %2
  %11 = load float, ptr %4, align 4, !tbaa !66
  br label %12

12:                                               ; preds = %10, %8
  %13 = phi float [ %9, %8 ], [ %11, %10 ]
  ret float %13
}

; Function Attrs: inlinehint mustprogress nounwind uwtable
define linkonce_odr dso_local noundef ptr @_ZN5ImGui16GetCurrentWindowEv() #2 comdat {
  %1 = alloca ptr, align 8
  call void @llvm.lifetime.start.p0(i64 8, ptr %1) #17
  %2 = load ptr, ptr @GImGui, align 8, !tbaa !61
  store ptr %2, ptr %1, align 8, !tbaa !61
  %3 = load ptr, ptr %1, align 8, !tbaa !61
  %4 = getelementptr inbounds nuw %struct.ImGuiContext, ptr %3, i32 0, i32 34
  %5 = load ptr, ptr %4, align 8, !tbaa !172
  %6 = getelementptr inbounds nuw %struct.ImGuiWindow, ptr %5, i32 0, i32 38
  store i8 1, ptr %6, align 4, !tbaa !173
  %7 = load ptr, ptr %1, align 8, !tbaa !61
  %8 = getelementptr inbounds nuw %struct.ImGuiContext, ptr %7, i32 0, i32 34
  %9 = load ptr, ptr %8, align 8, !tbaa !172
  call void @llvm.lifetime.end.p0(i64 8, ptr %1) #17
  ret ptr %9
}

; Function Attrs: mustprogress uwtable
define dso_local void @_ZN5ImGui23AlignTextToFramePaddingEv() #8 {
  %1 = alloca ptr, align 8
  %2 = alloca i32, align 4
  %3 = alloca ptr, align 8
  call void @llvm.lifetime.start.p0(i64 8, ptr %1) #17
  %4 = call noundef ptr @_ZN5ImGui16GetCurrentWindowEv()
  store ptr %4, ptr %1, align 8, !tbaa !11
  %5 = load ptr, ptr %1, align 8, !tbaa !11
  %6 = getelementptr inbounds nuw %struct.ImGuiWindow, ptr %5, i32 0, i32 41
  %7 = load i8, ptr %6, align 1, !tbaa !13, !range !59, !noundef !60
  %8 = trunc i8 %7 to i1
  br i1 %8, label %9, label %10

9:                                                ; preds = %0
  store i32 1, ptr %2, align 4
  br label %45

10:                                               ; preds = %0
  call void @llvm.lifetime.start.p0(i64 8, ptr %3) #17
  %11 = load ptr, ptr @GImGui, align 8, !tbaa !61
  store ptr %11, ptr %3, align 8, !tbaa !61
  %12 = load ptr, ptr %1, align 8, !tbaa !11
  %13 = getelementptr inbounds nuw %struct.ImGuiWindow, ptr %12, i32 0, i32 69
  %14 = getelementptr inbounds nuw %struct.ImGuiWindowTempData, ptr %13, i32 0, i32 5
  %15 = getelementptr inbounds nuw %struct.ImVec2, ptr %14, i32 0, i32 1
  %16 = load float, ptr %15, align 4, !tbaa !296
  %17 = load ptr, ptr %3, align 8, !tbaa !61
  %18 = getelementptr inbounds nuw %struct.ImGuiContext, ptr %17, i32 0, i32 6
  %19 = load float, ptr %18, align 8, !tbaa !185
  %20 = load ptr, ptr %3, align 8, !tbaa !61
  %21 = getelementptr inbounds nuw %struct.ImGuiContext, ptr %20, i32 0, i32 4
  %22 = getelementptr inbounds nuw %struct.ImGuiStyle, ptr %21, i32 0, i32 12
  %23 = getelementptr inbounds nuw %struct.ImVec2, ptr %22, i32 0, i32 1
  %24 = load float, ptr %23, align 4, !tbaa !228
  %25 = fmul float %24, 2.000000e+00
  %26 = fadd float %19, %25
  %27 = call noundef float @_ZL5ImMaxIfET_S0_S0_(float noundef %16, float noundef %26)
  %28 = load ptr, ptr %1, align 8, !tbaa !11
  %29 = getelementptr inbounds nuw %struct.ImGuiWindow, ptr %28, i32 0, i32 69
  %30 = getelementptr inbounds nuw %struct.ImGuiWindowTempData, ptr %29, i32 0, i32 5
  %31 = getelementptr inbounds nuw %struct.ImVec2, ptr %30, i32 0, i32 1
  store float %27, ptr %31, align 4, !tbaa !296
  %32 = load ptr, ptr %1, align 8, !tbaa !11
  %33 = getelementptr inbounds nuw %struct.ImGuiWindow, ptr %32, i32 0, i32 69
  %34 = getelementptr inbounds nuw %struct.ImGuiWindowTempData, ptr %33, i32 0, i32 7
  %35 = load float, ptr %34, align 8, !tbaa !64
  %36 = load ptr, ptr %3, align 8, !tbaa !61
  %37 = getelementptr inbounds nuw %struct.ImGuiContext, ptr %36, i32 0, i32 4
  %38 = getelementptr inbounds nuw %struct.ImGuiStyle, ptr %37, i32 0, i32 12
  %39 = getelementptr inbounds nuw %struct.ImVec2, ptr %38, i32 0, i32 1
  %40 = load float, ptr %39, align 4, !tbaa !228
  %41 = call noundef float @_ZL5ImMaxIfET_S0_S0_(float noundef %35, float noundef %40)
  %42 = load ptr, ptr %1, align 8, !tbaa !11
  %43 = getelementptr inbounds nuw %struct.ImGuiWindow, ptr %42, i32 0, i32 69
  %44 = getelementptr inbounds nuw %struct.ImGuiWindowTempData, ptr %43, i32 0, i32 7
  store float %41, ptr %44, align 8, !tbaa !64
  call void @llvm.lifetime.end.p0(i64 8, ptr %3) #17
  store i32 0, ptr %2, align 4
  br label %45

45:                                               ; preds = %10, %9
  call void @llvm.lifetime.end.p0(i64 8, ptr %1) #17
  %46 = load i32, ptr %2, align 4
  switch i32 %46, label %48 [
    i32 0, label %47
    i32 1, label %47
  ]

47:                                               ; preds = %45, %45
  ret void

48:                                               ; preds = %45
  unreachable
}