; Function Attrs: mustprogress nofree norecurse nosync nounwind willreturn memory(readwrite, inaccessiblemem: none) uwtable
define dso_local void @_ZN5ImGui23AlignTextToFramePaddingEv() local_unnamed_addr #8 {
  %1 = load ptr, ptr @GImGui, align 8, !tbaa !4
  %2 = getelementptr inbounds nuw i8, ptr %1, i64 4928
  %3 = load ptr, ptr %2, align 8, !tbaa !9
  %4 = getelementptr inbounds nuw i8, ptr %3, i64 204
  store i8 1, ptr %4, align 4, !tbaa !130
  %5 = getelementptr inbounds nuw i8, ptr %3, i64 207
  %6 = load i8, ptr %5, align 1, !tbaa !151, !range !152, !noundef !153
  %7 = trunc nuw i8 %6 to i1
  br i1 %7, label %23, label %8

8:                                                ; preds = %0
  %9 = getelementptr inbounds nuw i8, ptr %3, i64 324
  %10 = load float, ptr %9, align 4, !tbaa !270
  %11 = getelementptr inbounds nuw i8, ptr %1, i64 4184
  %12 = load float, ptr %11, align 8, !tbaa !172
  %13 = getelementptr inbounds nuw i8, ptr %1, i64 3080
  %14 = load float, ptr %13, align 4, !tbaa !211
  %15 = fmul float %14, 2.000000e+00
  %16 = fadd float %12, %15
  %17 = fcmp oge float %10, %16
  %18 = select i1 %17, float %10, float %16
  store float %18, ptr %9, align 4, !tbaa !270
  %19 = getelementptr inbounds nuw i8, ptr %3, i64 336
  %20 = load float, ptr %19, align 8, !tbaa !156
  %21 = fcmp oge float %20, %14
  %22 = select i1 %21, float %20, float %14
  store float %22, ptr %19, align 8, !tbaa !156
  br label %23

23:                                               ; preds = %0, %8
  ret void
}